
Talk2.elf:     file format elf32-avr

Sections:
Idx Name          Size      VMA       LMA       File off  Algn
  0 .text         000005dc  00000000  00000000  00000094  2**1
                  CONTENTS, ALLOC, LOAD, READONLY, CODE
  1 .data         00000002  00800060  000005dc  00000670  2**0
                  CONTENTS, ALLOC, LOAD, DATA
  2 .bss          00000001  00800062  000005de  00000672  2**0
                  ALLOC
  3 .eeprom       00000001  00810000  00810000  00000672  2**0
                  CONTENTS, ALLOC, LOAD, DATA
  4 .stab         00000378  00000000  00000000  00000674  2**2
                  CONTENTS, READONLY, DEBUGGING
  5 .stabstr      0000005f  00000000  00000000  000009ec  2**0
                  CONTENTS, READONLY, DEBUGGING
  6 .debug_aranges 00000020  00000000  00000000  00000a4b  2**0
                  CONTENTS, READONLY, DEBUGGING
  7 .debug_pubnames 00000138  00000000  00000000  00000a6b  2**0
                  CONTENTS, READONLY, DEBUGGING
  8 .debug_info   0000040d  00000000  00000000  00000ba3  2**0
                  CONTENTS, READONLY, DEBUGGING
  9 .debug_abbrev 000001c7  00000000  00000000  00000fb0  2**0
                  CONTENTS, READONLY, DEBUGGING
 10 .debug_line   00000498  00000000  00000000  00001177  2**0
                  CONTENTS, READONLY, DEBUGGING
 11 .debug_frame  00000120  00000000  00000000  00001610  2**2
                  CONTENTS, READONLY, DEBUGGING
 12 .debug_str    00000218  00000000  00000000  00001730  2**0
                  CONTENTS, READONLY, DEBUGGING
 13 .debug_loc    0000003b  00000000  00000000  00001948  2**0
                  CONTENTS, READONLY, DEBUGGING
Disassembly of section .text:

00000000 <__vectors>:
   0:	1a c0       	rjmp	.+52     	; 0x36 <__ctors_end>
   2:	34 c0       	rjmp	.+104    	; 0x6c <__bad_interrupt>
   4:	33 c0       	rjmp	.+102    	; 0x6c <__bad_interrupt>
   6:	32 c0       	rjmp	.+100    	; 0x6c <__bad_interrupt>
   8:	31 c0       	rjmp	.+98     	; 0x6c <__bad_interrupt>
   a:	30 c0       	rjmp	.+96     	; 0x6c <__bad_interrupt>
   c:	2f c0       	rjmp	.+94     	; 0x6c <__bad_interrupt>
   e:	2e c0       	rjmp	.+92     	; 0x6c <__bad_interrupt>
  10:	2d c0       	rjmp	.+90     	; 0x6c <__bad_interrupt>
  12:	2c c0       	rjmp	.+88     	; 0x6c <__bad_interrupt>
  14:	2b c0       	rjmp	.+86     	; 0x6c <__bad_interrupt>
  16:	2a c0       	rjmp	.+84     	; 0x6c <__bad_interrupt>
  18:	29 c0       	rjmp	.+82     	; 0x6c <__bad_interrupt>
  1a:	28 c0       	rjmp	.+80     	; 0x6c <__bad_interrupt>
  1c:	27 c0       	rjmp	.+78     	; 0x6c <__bad_interrupt>
  1e:	26 c0       	rjmp	.+76     	; 0x6c <__bad_interrupt>
  20:	25 c0       	rjmp	.+74     	; 0x6c <__bad_interrupt>
  22:	24 c0       	rjmp	.+72     	; 0x6c <__bad_interrupt>
  24:	23 c0       	rjmp	.+70     	; 0x6c <__bad_interrupt>
  26:	8f c2       	rjmp	.+1310   	; 0x546 <main+0x40>
  28:	92 c2       	rjmp	.+1316   	; 0x54e <main+0x48>
  2a:	93 c2       	rjmp	.+1318   	; 0x552 <main+0x4c>
  2c:	94 c2       	rjmp	.+1320   	; 0x556 <main+0x50>
  2e:	95 c2       	rjmp	.+1322   	; 0x55a <main+0x54>
  30:	96 c2       	rjmp	.+1324   	; 0x55e <main+0x58>
  32:	97 c2       	rjmp	.+1326   	; 0x562 <main+0x5c>
  34:	98 c2       	rjmp	.+1328   	; 0x566 <main+0x60>

00000036 <__ctors_end>:
  36:	11 24       	eor	r1, r1
  38:	1f be       	out	0x3f, r1	; 63
  3a:	cf e5       	ldi	r28, 0x5F	; 95
  3c:	d4 e0       	ldi	r29, 0x04	; 4
  3e:	de bf       	out	0x3e, r29	; 62
  40:	cd bf       	out	0x3d, r28	; 61

00000042 <__do_copy_data>:
  42:	10 e0       	ldi	r17, 0x00	; 0
  44:	a0 e6       	ldi	r26, 0x60	; 96
  46:	b0 e0       	ldi	r27, 0x00	; 0
  48:	ec ed       	ldi	r30, 0xDC	; 220
  4a:	f5 e0       	ldi	r31, 0x05	; 5
  4c:	02 c0       	rjmp	.+4      	; 0x52 <.do_copy_data_start>

0000004e <.do_copy_data_loop>:
  4e:	05 90       	lpm	r0, Z+
  50:	0d 92       	st	X+, r0

00000052 <.do_copy_data_start>:
  52:	a2 36       	cpi	r26, 0x62	; 98
  54:	b1 07       	cpc	r27, r17
  56:	d9 f7       	brne	.-10     	; 0x4e <.do_copy_data_loop>

00000058 <__do_clear_bss>:
  58:	10 e0       	ldi	r17, 0x00	; 0
  5a:	a2 e6       	ldi	r26, 0x62	; 98
  5c:	b0 e0       	ldi	r27, 0x00	; 0
  5e:	01 c0       	rjmp	.+2      	; 0x62 <.do_clear_bss_start>

00000060 <.do_clear_bss_loop>:
  60:	1d 92       	st	X+, r1

00000062 <.do_clear_bss_start>:
  62:	a3 36       	cpi	r26, 0x63	; 99
  64:	b1 07       	cpc	r27, r17
  66:	e1 f7       	brne	.-8      	; 0x60 <.do_clear_bss_loop>
  68:	4e d2       	rcall	.+1180   	; 0x506 <main>
  6a:	b7 c2       	rjmp	.+1390   	; 0x5da <_exit>

0000006c <__bad_interrupt>:
  6c:	c9 cf       	rjmp	.-110    	; 0x0 <__vectors>

0000006e <delayms>:
  6e:	9c 01       	movw	r18, r24
  70:	89 2b       	or	r24, r25
  72:	39 f0       	breq	.+14     	; 0x82 <delayms+0x14>
  74:	80 ed       	ldi	r24, 0xD0	; 208
  76:	97 e0       	ldi	r25, 0x07	; 7
  78:	01 97       	sbiw	r24, 0x01	; 1
  7a:	f1 f7       	brne	.-4      	; 0x78 <delayms+0xa>
  7c:	21 50       	subi	r18, 0x01	; 1
  7e:	30 40       	sbci	r19, 0x00	; 0
  80:	c9 f7       	brne	.-14     	; 0x74 <delayms+0x6>
  82:	08 95       	ret

00000084 <ReadByteFromEeprom>:
  84:	a0 e0       	ldi	r26, 0x00	; 0
  86:	b0 e0       	ldi	r27, 0x00	; 0
  88:	94 d2       	rcall	.+1320   	; 0x5b2 <__eeprom_read_byte_1C1D1E>
  8a:	80 2d       	mov	r24, r0
  8c:	90 e0       	ldi	r25, 0x00	; 0
  8e:	08 95       	ret

00000090 <WriteByteToEeprom>:
  90:	a0 e0       	ldi	r26, 0x00	; 0
  92:	b0 e0       	ldi	r27, 0x00	; 0
  94:	08 2e       	mov	r0, r24
  96:	95 d2       	rcall	.+1322   	; 0x5c2 <__eeprom_write_byte_1C1D1E>
  98:	08 95       	ret

0000009a <InitPorts>:
  9a:	8f ef       	ldi	r24, 0xFF	; 255
  9c:	81 bb       	out	0x11, r24	; 17
  9e:	14 ba       	out	0x14, r1	; 20
  a0:	87 bb       	out	0x17, r24	; 23
  a2:	18 ba       	out	0x18, r1	; 24
  a4:	14 ba       	out	0x14, r1	; 20
  a6:	93 9a       	sbi	0x12, 3	; 18
  a8:	08 95       	ret

000000aa <Delay>:
  aa:	08 95       	ret

000000ac <TestIt>:
  ac:	85 e0       	ldi	r24, 0x05	; 5
  ae:	88 bb       	out	0x18, r24	; 24
  b0:	92 9a       	sbi	0x12, 2	; 18
  b2:	c6 9a       	sbi	0x18, 6	; 24
  b4:	9b 99       	sbic	0x13, 3	; 19
  b6:	03 c0       	rjmp	.+6      	; 0xbe <TestIt+0x12>
  b8:	92 98       	cbi	0x12, 2	; 18
  ba:	9b 9b       	sbis	0x13, 3	; 19
  bc:	fd cf       	rjmp	.-6      	; 0xb8 <TestIt+0xc>
  be:	92 9a       	sbi	0x12, 2	; 18
  c0:	08 95       	ret

000000c2 <SayIt>:
  c2:	92 98       	cbi	0x12, 2	; 18
  c4:	88 bb       	out	0x18, r24	; 24
  c6:	92 9a       	sbi	0x12, 2	; 18
  c8:	c6 9a       	sbi	0x18, 6	; 24
  ca:	92 98       	cbi	0x12, 2	; 18
  cc:	9b 9b       	sbis	0x13, 3	; 19
  ce:	fe cf       	rjmp	.-4      	; 0xcc <SayIt+0xa>
  d0:	92 9a       	sbi	0x12, 2	; 18
  d2:	08 95       	ret

000000d4 <IamTalking>:
  d4:	84 e0       	ldi	r24, 0x04	; 4
  d6:	90 e0       	ldi	r25, 0x00	; 0
  d8:	f4 df       	rcall	.-24     	; 0xc2 <SayIt>
  da:	8b e1       	ldi	r24, 0x1B	; 27
  dc:	90 e0       	ldi	r25, 0x00	; 0
  de:	f1 df       	rcall	.-30     	; 0xc2 <SayIt>
  e0:	8b e1       	ldi	r24, 0x1B	; 27
  e2:	90 e0       	ldi	r25, 0x00	; 0
  e4:	ee df       	rcall	.-36     	; 0xc2 <SayIt>
  e6:	84 e1       	ldi	r24, 0x14	; 20
  e8:	90 e0       	ldi	r25, 0x00	; 0
  ea:	eb df       	rcall	.-42     	; 0xc2 <SayIt>
  ec:	84 e0       	ldi	r24, 0x04	; 4
  ee:	90 e0       	ldi	r25, 0x00	; 0
  f0:	e8 df       	rcall	.-48     	; 0xc2 <SayIt>
  f2:	84 e0       	ldi	r24, 0x04	; 4
  f4:	90 e0       	ldi	r25, 0x00	; 0
  f6:	e5 df       	rcall	.-54     	; 0xc2 <SayIt>
  f8:	84 e0       	ldi	r24, 0x04	; 4
  fa:	90 e0       	ldi	r25, 0x00	; 0
  fc:	e2 df       	rcall	.-60     	; 0xc2 <SayIt>
  fe:	84 e0       	ldi	r24, 0x04	; 4
 100:	90 e0       	ldi	r25, 0x00	; 0
 102:	df df       	rcall	.-66     	; 0xc2 <SayIt>
 104:	88 e1       	ldi	r24, 0x18	; 24
 106:	90 e0       	ldi	r25, 0x00	; 0
 108:	dc df       	rcall	.-72     	; 0xc2 <SayIt>
 10a:	86 e0       	ldi	r24, 0x06	; 6
 10c:	90 e0       	ldi	r25, 0x00	; 0
 10e:	d9 df       	rcall	.-78     	; 0xc2 <SayIt>
 110:	84 e0       	ldi	r24, 0x04	; 4
 112:	90 e0       	ldi	r25, 0x00	; 0
 114:	d6 df       	rcall	.-84     	; 0xc2 <SayIt>
 116:	84 e0       	ldi	r24, 0x04	; 4
 118:	90 e0       	ldi	r25, 0x00	; 0
 11a:	d3 df       	rcall	.-90     	; 0xc2 <SayIt>
 11c:	8a e1       	ldi	r24, 0x1A	; 26
 11e:	90 e0       	ldi	r25, 0x00	; 0
 120:	d0 df       	rcall	.-96     	; 0xc2 <SayIt>
 122:	8a e1       	ldi	r24, 0x1A	; 26
 124:	90 e0       	ldi	r25, 0x00	; 0
 126:	cd df       	rcall	.-102    	; 0xc2 <SayIt>
 128:	80 e1       	ldi	r24, 0x10	; 16
 12a:	90 e0       	ldi	r25, 0x00	; 0
 12c:	ca df       	rcall	.-108    	; 0xc2 <SayIt>
 12e:	82 e0       	ldi	r24, 0x02	; 2
 130:	90 e0       	ldi	r25, 0x00	; 0
 132:	c7 df       	rcall	.-114    	; 0xc2 <SayIt>
 134:	8d e0       	ldi	r24, 0x0D	; 13
 136:	90 e0       	ldi	r25, 0x00	; 0
 138:	c4 df       	rcall	.-120    	; 0xc2 <SayIt>
 13a:	87 e1       	ldi	r24, 0x17	; 23
 13c:	90 e0       	ldi	r25, 0x00	; 0
 13e:	c1 df       	rcall	.-126    	; 0xc2 <SayIt>
 140:	87 e1       	ldi	r24, 0x17	; 23
 142:	90 e0       	ldi	r25, 0x00	; 0
 144:	be df       	rcall	.-132    	; 0xc2 <SayIt>
 146:	82 e0       	ldi	r24, 0x02	; 2
 148:	90 e0       	ldi	r25, 0x00	; 0
 14a:	bb df       	rcall	.-138    	; 0xc2 <SayIt>
 14c:	8a e2       	ldi	r24, 0x2A	; 42
 14e:	90 e0       	ldi	r25, 0x00	; 0
 150:	b8 df       	rcall	.-144    	; 0xc2 <SayIt>
 152:	8c e0       	ldi	r24, 0x0C	; 12
 154:	90 e0       	ldi	r25, 0x00	; 0
 156:	b5 df       	rcall	.-150    	; 0xc2 <SayIt>
 158:	8c e2       	ldi	r24, 0x2C	; 44
 15a:	90 e0       	ldi	r25, 0x00	; 0
 15c:	b2 df       	rcall	.-156    	; 0xc2 <SayIt>
 15e:	84 e0       	ldi	r24, 0x04	; 4
 160:	90 e0       	ldi	r25, 0x00	; 0
 162:	af df       	rcall	.-162    	; 0xc2 <SayIt>
 164:	8d e0       	ldi	r24, 0x0D	; 13
 166:	90 e0       	ldi	r25, 0x00	; 0
 168:	ac df       	rcall	.-168    	; 0xc2 <SayIt>
 16a:	86 e1       	ldi	r24, 0x16	; 22
 16c:	90 e0       	ldi	r25, 0x00	; 0
 16e:	a9 df       	rcall	.-174    	; 0xc2 <SayIt>
 170:	82 e0       	ldi	r24, 0x02	; 2
 172:	90 e0       	ldi	r25, 0x00	; 0
 174:	a6 df       	rcall	.-180    	; 0xc2 <SayIt>
 176:	81 e3       	ldi	r24, 0x31	; 49
 178:	90 e0       	ldi	r25, 0x00	; 0
 17a:	a3 df       	rcall	.-186    	; 0xc2 <SayIt>
 17c:	81 e3       	ldi	r24, 0x31	; 49
 17e:	90 e0       	ldi	r25, 0x00	; 0
 180:	a0 df       	rcall	.-192    	; 0xc2 <SayIt>
 182:	86 e1       	ldi	r24, 0x16	; 22
 184:	90 e0       	ldi	r25, 0x00	; 0
 186:	9d df       	rcall	.-198    	; 0xc2 <SayIt>
 188:	86 e1       	ldi	r24, 0x16	; 22
 18a:	90 e0       	ldi	r25, 0x00	; 0
 18c:	9a df       	rcall	.-204    	; 0xc2 <SayIt>
 18e:	86 e1       	ldi	r24, 0x16	; 22
 190:	90 e0       	ldi	r25, 0x00	; 0
 192:	97 df       	rcall	.-210    	; 0xc2 <SayIt>
 194:	84 e0       	ldi	r24, 0x04	; 4
 196:	90 e0       	ldi	r25, 0x00	; 0
 198:	94 df       	rcall	.-216    	; 0xc2 <SayIt>
 19a:	84 e0       	ldi	r24, 0x04	; 4
 19c:	90 e0       	ldi	r25, 0x00	; 0
 19e:	91 df       	rcall	.-222    	; 0xc2 <SayIt>
 1a0:	84 e0       	ldi	r24, 0x04	; 4
 1a2:	90 e0       	ldi	r25, 0x00	; 0
 1a4:	8e df       	rcall	.-228    	; 0xc2 <SayIt>
 1a6:	08 95       	ret

000001a8 <FreakazoidRobots>:
 1a8:	84 e0       	ldi	r24, 0x04	; 4
 1aa:	90 e0       	ldi	r25, 0x00	; 0
 1ac:	8a df       	rcall	.-236    	; 0xc2 <SayIt>
 1ae:	88 e2       	ldi	r24, 0x28	; 40
 1b0:	90 e0       	ldi	r25, 0x00	; 0
 1b2:	87 df       	rcall	.-242    	; 0xc2 <SayIt>
 1b4:	88 e2       	ldi	r24, 0x28	; 40
 1b6:	90 e0       	ldi	r25, 0x00	; 0
 1b8:	84 df       	rcall	.-248    	; 0xc2 <SayIt>
 1ba:	8e e0       	ldi	r24, 0x0E	; 14
 1bc:	90 e0       	ldi	r25, 0x00	; 0
 1be:	81 df       	rcall	.-254    	; 0xc2 <SayIt>
 1c0:	83 e1       	ldi	r24, 0x13	; 19
 1c2:	90 e0       	ldi	r25, 0x00	; 0
 1c4:	7e df       	rcall	.-260    	; 0xc2 <SayIt>
 1c6:	89 e2       	ldi	r24, 0x29	; 41
 1c8:	90 e0       	ldi	r25, 0x00	; 0
 1ca:	7b df       	rcall	.-266    	; 0xc2 <SayIt>
 1cc:	8f e0       	ldi	r24, 0x0F	; 15
 1ce:	90 e0       	ldi	r25, 0x00	; 0
 1d0:	78 df       	rcall	.-272    	; 0xc2 <SayIt>
 1d2:	8b e2       	ldi	r24, 0x2B	; 43
 1d4:	90 e0       	ldi	r25, 0x00	; 0
 1d6:	75 df       	rcall	.-278    	; 0xc2 <SayIt>
 1d8:	85 e3       	ldi	r24, 0x35	; 53
 1da:	90 e0       	ldi	r25, 0x00	; 0
 1dc:	72 df       	rcall	.-284    	; 0xc2 <SayIt>
 1de:	83 e1       	ldi	r24, 0x13	; 19
 1e0:	90 e0       	ldi	r25, 0x00	; 0
 1e2:	6f df       	rcall	.-290    	; 0xc2 <SayIt>
 1e4:	86 e3       	ldi	r24, 0x36	; 54
 1e6:	90 e0       	ldi	r25, 0x00	; 0
 1e8:	6c df       	rcall	.-296    	; 0xc2 <SayIt>
 1ea:	84 e0       	ldi	r24, 0x04	; 4
 1ec:	90 e0       	ldi	r25, 0x00	; 0
 1ee:	69 df       	rcall	.-302    	; 0xc2 <SayIt>
 1f0:	8e e0       	ldi	r24, 0x0E	; 14
 1f2:	90 e0       	ldi	r25, 0x00	; 0
 1f4:	66 df       	rcall	.-308    	; 0xc2 <SayIt>
 1f6:	85 e3       	ldi	r24, 0x35	; 53
 1f8:	90 e0       	ldi	r25, 0x00	; 0
 1fa:	63 df       	rcall	.-314    	; 0xc2 <SayIt>
 1fc:	81 e0       	ldi	r24, 0x01	; 1
 1fe:	90 e0       	ldi	r25, 0x00	; 0
 200:	60 df       	rcall	.-320    	; 0xc2 <SayIt>
 202:	8f e3       	ldi	r24, 0x3F	; 63
 204:	90 e0       	ldi	r25, 0x00	; 0
 206:	5d df       	rcall	.-326    	; 0xc2 <SayIt>
 208:	88 e1       	ldi	r24, 0x18	; 24
 20a:	90 e0       	ldi	r25, 0x00	; 0
 20c:	5a df       	rcall	.-332    	; 0xc2 <SayIt>
 20e:	82 e0       	ldi	r24, 0x02	; 2
 210:	90 e0       	ldi	r25, 0x00	; 0
 212:	57 df       	rcall	.-338    	; 0xc2 <SayIt>
 214:	81 e1       	ldi	r24, 0x11	; 17
 216:	90 e0       	ldi	r25, 0x00	; 0
 218:	54 df       	rcall	.-344    	; 0xc2 <SayIt>
 21a:	87 e3       	ldi	r24, 0x37	; 55
 21c:	90 e0       	ldi	r25, 0x00	; 0
 21e:	51 df       	rcall	.-350    	; 0xc2 <SayIt>
 220:	84 e0       	ldi	r24, 0x04	; 4
 222:	90 e0       	ldi	r25, 0x00	; 0
 224:	4e df       	rcall	.-356    	; 0xc2 <SayIt>
 226:	84 e0       	ldi	r24, 0x04	; 4
 228:	90 e0       	ldi	r25, 0x00	; 0
 22a:	4b df       	rcall	.-362    	; 0xc2 <SayIt>
 22c:	89 e0       	ldi	r24, 0x09	; 9
 22e:	90 e0       	ldi	r25, 0x00	; 0
 230:	48 df       	rcall	.-368    	; 0xc2 <SayIt>
 232:	8d e2       	ldi	r24, 0x2D	; 45
 234:	90 e0       	ldi	r25, 0x00	; 0
 236:	45 df       	rcall	.-374    	; 0xc2 <SayIt>
 238:	83 e1       	ldi	r24, 0x13	; 19
 23a:	90 e0       	ldi	r25, 0x00	; 0
 23c:	42 df       	rcall	.-380    	; 0xc2 <SayIt>
 23e:	87 e3       	ldi	r24, 0x37	; 55
 240:	90 e0       	ldi	r25, 0x00	; 0
 242:	3f df       	rcall	.-386    	; 0xc2 <SayIt>
 244:	84 e0       	ldi	r24, 0x04	; 4
 246:	90 e0       	ldi	r25, 0x00	; 0
 248:	3c df       	rcall	.-392    	; 0xc2 <SayIt>
 24a:	8e e0       	ldi	r24, 0x0E	; 14
 24c:	90 e0       	ldi	r25, 0x00	; 0
 24e:	39 df       	rcall	.-398    	; 0xc2 <SayIt>
 250:	83 e1       	ldi	r24, 0x13	; 19
 252:	90 e0       	ldi	r25, 0x00	; 0
 254:	36 df       	rcall	.-404    	; 0xc2 <SayIt>
 256:	89 e0       	ldi	r24, 0x09	; 9
 258:	90 e0       	ldi	r25, 0x00	; 0
 25a:	33 df       	rcall	.-410    	; 0xc2 <SayIt>
 25c:	8f e0       	ldi	r24, 0x0F	; 15
 25e:	90 e0       	ldi	r25, 0x00	; 0
 260:	30 df       	rcall	.-416    	; 0xc2 <SayIt>
 262:	85 e3       	ldi	r24, 0x35	; 53
 264:	90 e0       	ldi	r25, 0x00	; 0
 266:	2d df       	rcall	.-422    	; 0xc2 <SayIt>
 268:	87 e2       	ldi	r24, 0x27	; 39
 26a:	90 e0       	ldi	r25, 0x00	; 0
 26c:	2a df       	rcall	.-428    	; 0xc2 <SayIt>
 26e:	8d e0       	ldi	r24, 0x0D	; 13
 270:	90 e0       	ldi	r25, 0x00	; 0
 272:	27 df       	rcall	.-434    	; 0xc2 <SayIt>
 274:	84 e0       	ldi	r24, 0x04	; 4
 276:	90 e0       	ldi	r25, 0x00	; 0
 278:	24 df       	rcall	.-440    	; 0xc2 <SayIt>
 27a:	81 e1       	ldi	r24, 0x11	; 17
 27c:	90 e0       	ldi	r25, 0x00	; 0
 27e:	21 df       	rcall	.-446    	; 0xc2 <SayIt>
 280:	8f e1       	ldi	r24, 0x1F	; 31
 282:	90 e0       	ldi	r25, 0x00	; 0
 284:	1e df       	rcall	.-452    	; 0xc2 <SayIt>
 286:	84 e0       	ldi	r24, 0x04	; 4
 288:	90 e0       	ldi	r25, 0x00	; 0
 28a:	1b df       	rcall	.-458    	; 0xc2 <SayIt>
 28c:	82 e1       	ldi	r24, 0x12	; 18
 28e:	90 e0       	ldi	r25, 0x00	; 0
 290:	18 df       	rcall	.-464    	; 0xc2 <SayIt>
 292:	8f e0       	ldi	r24, 0x0F	; 15
 294:	90 e0       	ldi	r25, 0x00	; 0
 296:	15 df       	rcall	.-470    	; 0xc2 <SayIt>
 298:	84 e0       	ldi	r24, 0x04	; 4
 29a:	90 e0       	ldi	r25, 0x00	; 0
 29c:	12 df       	rcall	.-476    	; 0xc2 <SayIt>
 29e:	82 e0       	ldi	r24, 0x02	; 2
 2a0:	90 e0       	ldi	r25, 0x00	; 0
 2a2:	0f df       	rcall	.-482    	; 0xc2 <SayIt>
 2a4:	85 e1       	ldi	r24, 0x15	; 21
 2a6:	90 e0       	ldi	r25, 0x00	; 0
 2a8:	0c df       	rcall	.-488    	; 0xc2 <SayIt>
 2aa:	8a e1       	ldi	r24, 0x1A	; 26
 2ac:	90 e0       	ldi	r25, 0x00	; 0
 2ae:	09 df       	rcall	.-494    	; 0xc2 <SayIt>
 2b0:	8a e1       	ldi	r24, 0x1A	; 26
 2b2:	90 e0       	ldi	r25, 0x00	; 0
 2b4:	06 df       	rcall	.-500    	; 0xc2 <SayIt>
 2b6:	88 e3       	ldi	r24, 0x38	; 56
 2b8:	90 e0       	ldi	r25, 0x00	; 0
 2ba:	03 df       	rcall	.-506    	; 0xc2 <SayIt>
 2bc:	87 e3       	ldi	r24, 0x37	; 55
 2be:	90 e0       	ldi	r25, 0x00	; 0
 2c0:	00 df       	rcall	.-512    	; 0xc2 <SayIt>
 2c2:	87 e3       	ldi	r24, 0x37	; 55
 2c4:	90 e0       	ldi	r25, 0x00	; 0
 2c6:	fd de       	rcall	.-518    	; 0xc2 <SayIt>
 2c8:	84 e0       	ldi	r24, 0x04	; 4
 2ca:	90 e0       	ldi	r25, 0x00	; 0
 2cc:	fa de       	rcall	.-524    	; 0xc2 <SayIt>
 2ce:	88 e2       	ldi	r24, 0x28	; 40
 2d0:	90 e0       	ldi	r25, 0x00	; 0
 2d2:	f7 de       	rcall	.-530    	; 0xc2 <SayIt>
 2d4:	8e e3       	ldi	r24, 0x3E	; 62
 2d6:	90 e0       	ldi	r25, 0x00	; 0
 2d8:	f4 de       	rcall	.-536    	; 0xc2 <SayIt>
 2da:	8a e3       	ldi	r24, 0x3A	; 58
 2dc:	90 e0       	ldi	r25, 0x00	; 0
 2de:	f1 de       	rcall	.-542    	; 0xc2 <SayIt>
 2e0:	8a e3       	ldi	r24, 0x3A	; 58
 2e2:	90 e0       	ldi	r25, 0x00	; 0
 2e4:	ee de       	rcall	.-548    	; 0xc2 <SayIt>
 2e6:	84 e0       	ldi	r24, 0x04	; 4
 2e8:	90 e0       	ldi	r25, 0x00	; 0
 2ea:	eb de       	rcall	.-554    	; 0xc2 <SayIt>
 2ec:	08 95       	ret

000002ee <HelloLila>:
 2ee:	84 e0       	ldi	r24, 0x04	; 4
 2f0:	90 e0       	ldi	r25, 0x00	; 0
 2f2:	e7 de       	rcall	.-562    	; 0xc2 <SayIt>
 2f4:	8b e1       	ldi	r24, 0x1B	; 27
 2f6:	90 e0       	ldi	r25, 0x00	; 0
 2f8:	e4 de       	rcall	.-568    	; 0xc2 <SayIt>
 2fa:	87 e0       	ldi	r24, 0x07	; 7
 2fc:	90 e0       	ldi	r25, 0x00	; 0
 2fe:	e1 de       	rcall	.-574    	; 0xc2 <SayIt>
 300:	8d e2       	ldi	r24, 0x2D	; 45
 302:	90 e0       	ldi	r25, 0x00	; 0
 304:	de de       	rcall	.-580    	; 0xc2 <SayIt>
 306:	8f e0       	ldi	r24, 0x0F	; 15
 308:	90 e0       	ldi	r25, 0x00	; 0
 30a:	db de       	rcall	.-586    	; 0xc2 <SayIt>
 30c:	85 e3       	ldi	r24, 0x35	; 53
 30e:	90 e0       	ldi	r25, 0x00	; 0
 310:	d8 de       	rcall	.-592    	; 0xc2 <SayIt>
 312:	8d e2       	ldi	r24, 0x2D	; 45
 314:	90 e0       	ldi	r25, 0x00	; 0
 316:	d5 de       	rcall	.-598    	; 0xc2 <SayIt>
 318:	86 e0       	ldi	r24, 0x06	; 6
 31a:	90 e0       	ldi	r25, 0x00	; 0
 31c:	d2 de       	rcall	.-604    	; 0xc2 <SayIt>
 31e:	8d e2       	ldi	r24, 0x2D	; 45
 320:	90 e0       	ldi	r25, 0x00	; 0
 322:	cf de       	rcall	.-610    	; 0xc2 <SayIt>
 324:	8f e0       	ldi	r24, 0x0F	; 15
 326:	90 e0       	ldi	r25, 0x00	; 0
 328:	cc de       	rcall	.-616    	; 0xc2 <SayIt>
 32a:	84 e0       	ldi	r24, 0x04	; 4
 32c:	90 e0       	ldi	r25, 0x00	; 0
 32e:	c9 de       	rcall	.-622    	; 0xc2 <SayIt>
 330:	84 e0       	ldi	r24, 0x04	; 4
 332:	90 e0       	ldi	r25, 0x00	; 0
 334:	c6 de       	rcall	.-628    	; 0xc2 <SayIt>
 336:	08 95       	ret

00000338 <RandoAllophone>:
 338:	cf 93       	push	r28
 33a:	df 93       	push	r29
 33c:	c1 e0       	ldi	r28, 0x01	; 1
 33e:	d0 e0       	ldi	r29, 0x00	; 0
 340:	ce 01       	movw	r24, r28
 342:	bf de       	rcall	.-642    	; 0xc2 <SayIt>
 344:	80 e0       	ldi	r24, 0x00	; 0
 346:	90 e0       	ldi	r25, 0x00	; 0
 348:	bc de       	rcall	.-648    	; 0xc2 <SayIt>
 34a:	21 96       	adiw	r28, 0x01	; 1
 34c:	c2 34       	cpi	r28, 0x42	; 66
 34e:	d1 05       	cpc	r29, r1
 350:	b9 f7       	brne	.-18     	; 0x340 <RandoAllophone+0x8>
 352:	df 91       	pop	r29
 354:	cf 91       	pop	r28
 356:	08 95       	ret

00000358 <Yes>:
 358:	89 e1       	ldi	r24, 0x19	; 25
 35a:	90 e0       	ldi	r25, 0x00	; 0
 35c:	b2 de       	rcall	.-668    	; 0xc2 <SayIt>
 35e:	87 e0       	ldi	r24, 0x07	; 7
 360:	90 e0       	ldi	r25, 0x00	; 0
 362:	af de       	rcall	.-674    	; 0xc2 <SayIt>
 364:	87 e0       	ldi	r24, 0x07	; 7
 366:	90 e0       	ldi	r25, 0x00	; 0
 368:	ac de       	rcall	.-680    	; 0xc2 <SayIt>
 36a:	87 e3       	ldi	r24, 0x37	; 55
 36c:	90 e0       	ldi	r25, 0x00	; 0
 36e:	a9 de       	rcall	.-686    	; 0xc2 <SayIt>
 370:	87 e3       	ldi	r24, 0x37	; 55
 372:	90 e0       	ldi	r25, 0x00	; 0
 374:	a6 de       	rcall	.-692    	; 0xc2 <SayIt>
 376:	84 e0       	ldi	r24, 0x04	; 4
 378:	90 e0       	ldi	r25, 0x00	; 0
 37a:	a3 de       	rcall	.-698    	; 0xc2 <SayIt>
 37c:	08 95       	ret

0000037e <No>:
 37e:	88 e3       	ldi	r24, 0x38	; 56
 380:	90 e0       	ldi	r25, 0x00	; 0
 382:	9f de       	rcall	.-706    	; 0xc2 <SayIt>
 384:	8f e0       	ldi	r24, 0x0F	; 15
 386:	90 e0       	ldi	r25, 0x00	; 0
 388:	9c de       	rcall	.-712    	; 0xc2 <SayIt>
 38a:	85 e3       	ldi	r24, 0x35	; 53
 38c:	90 e0       	ldi	r25, 0x00	; 0
 38e:	99 de       	rcall	.-718    	; 0xc2 <SayIt>
 390:	84 e0       	ldi	r24, 0x04	; 4
 392:	90 e0       	ldi	r25, 0x00	; 0
 394:	96 de       	rcall	.-724    	; 0xc2 <SayIt>
 396:	08 95       	ret

00000398 <AsISeeItYes>:
 398:	8a e1       	ldi	r24, 0x1A	; 26
 39a:	90 e0       	ldi	r25, 0x00	; 0
 39c:	92 de       	rcall	.-732    	; 0xc2 <SayIt>
 39e:	86 e2       	ldi	r24, 0x26	; 38
 3a0:	90 e0       	ldi	r25, 0x00	; 0
 3a2:	8f de       	rcall	.-738    	; 0xc2 <SayIt>
 3a4:	84 e0       	ldi	r24, 0x04	; 4
 3a6:	90 e0       	ldi	r25, 0x00	; 0
 3a8:	8c de       	rcall	.-744    	; 0xc2 <SayIt>
 3aa:	88 e1       	ldi	r24, 0x18	; 24
 3ac:	90 e0       	ldi	r25, 0x00	; 0
 3ae:	89 de       	rcall	.-750    	; 0xc2 <SayIt>
 3b0:	86 e0       	ldi	r24, 0x06	; 6
 3b2:	90 e0       	ldi	r25, 0x00	; 0
 3b4:	86 de       	rcall	.-756    	; 0xc2 <SayIt>
 3b6:	84 e0       	ldi	r24, 0x04	; 4
 3b8:	90 e0       	ldi	r25, 0x00	; 0
 3ba:	83 de       	rcall	.-762    	; 0xc2 <SayIt>
 3bc:	84 e0       	ldi	r24, 0x04	; 4
 3be:	90 e0       	ldi	r25, 0x00	; 0
 3c0:	80 de       	rcall	.-768    	; 0xc2 <SayIt>
 3c2:	87 e3       	ldi	r24, 0x37	; 55
 3c4:	90 e0       	ldi	r25, 0x00	; 0
 3c6:	7d de       	rcall	.-774    	; 0xc2 <SayIt>
 3c8:	87 e3       	ldi	r24, 0x37	; 55
 3ca:	90 e0       	ldi	r25, 0x00	; 0
 3cc:	7a de       	rcall	.-780    	; 0xc2 <SayIt>
 3ce:	83 e1       	ldi	r24, 0x13	; 19
 3d0:	90 e0       	ldi	r25, 0x00	; 0
 3d2:	77 de       	rcall	.-786    	; 0xc2 <SayIt>
 3d4:	84 e0       	ldi	r24, 0x04	; 4
 3d6:	90 e0       	ldi	r25, 0x00	; 0
 3d8:	74 de       	rcall	.-792    	; 0xc2 <SayIt>
 3da:	8c e0       	ldi	r24, 0x0C	; 12
 3dc:	90 e0       	ldi	r25, 0x00	; 0
 3de:	71 de       	rcall	.-798    	; 0xc2 <SayIt>
 3e0:	81 e1       	ldi	r24, 0x11	; 17
 3e2:	90 e0       	ldi	r25, 0x00	; 0
 3e4:	6e de       	rcall	.-804    	; 0xc2 <SayIt>
 3e6:	84 e0       	ldi	r24, 0x04	; 4
 3e8:	90 e0       	ldi	r25, 0x00	; 0
 3ea:	6b de       	rcall	.-810    	; 0xc2 <SayIt>
 3ec:	89 e1       	ldi	r24, 0x19	; 25
 3ee:	90 e0       	ldi	r25, 0x00	; 0
 3f0:	68 de       	rcall	.-816    	; 0xc2 <SayIt>
 3f2:	87 e0       	ldi	r24, 0x07	; 7
 3f4:	90 e0       	ldi	r25, 0x00	; 0
 3f6:	65 de       	rcall	.-822    	; 0xc2 <SayIt>
 3f8:	87 e0       	ldi	r24, 0x07	; 7
 3fa:	90 e0       	ldi	r25, 0x00	; 0
 3fc:	62 de       	rcall	.-828    	; 0xc2 <SayIt>
 3fe:	87 e3       	ldi	r24, 0x37	; 55
 400:	90 e0       	ldi	r25, 0x00	; 0
 402:	5f de       	rcall	.-834    	; 0xc2 <SayIt>
 404:	87 e3       	ldi	r24, 0x37	; 55
 406:	90 e0       	ldi	r25, 0x00	; 0
 408:	5c de       	rcall	.-840    	; 0xc2 <SayIt>
 40a:	84 e0       	ldi	r24, 0x04	; 4
 40c:	90 e0       	ldi	r25, 0x00	; 0
 40e:	59 de       	rcall	.-846    	; 0xc2 <SayIt>
 410:	08 95       	ret

00000412 <AskAgainLater>:
 412:	8a e1       	ldi	r24, 0x1A	; 26
 414:	90 e0       	ldi	r25, 0x00	; 0
 416:	55 de       	rcall	.-854    	; 0xc2 <SayIt>
 418:	87 e3       	ldi	r24, 0x37	; 55
 41a:	90 e0       	ldi	r25, 0x00	; 0
 41c:	52 de       	rcall	.-860    	; 0xc2 <SayIt>
 41e:	89 e2       	ldi	r24, 0x29	; 41
 420:	90 e0       	ldi	r25, 0x00	; 0
 422:	4f de       	rcall	.-866    	; 0xc2 <SayIt>
 424:	84 e0       	ldi	r24, 0x04	; 4
 426:	90 e0       	ldi	r25, 0x00	; 0
 428:	4c de       	rcall	.-872    	; 0xc2 <SayIt>
 42a:	8a e1       	ldi	r24, 0x1A	; 26
 42c:	90 e0       	ldi	r25, 0x00	; 0
 42e:	49 de       	rcall	.-878    	; 0xc2 <SayIt>
 430:	82 e2       	ldi	r24, 0x22	; 34
 432:	90 e0       	ldi	r25, 0x00	; 0
 434:	46 de       	rcall	.-884    	; 0xc2 <SayIt>
 436:	8a e1       	ldi	r24, 0x1A	; 26
 438:	90 e0       	ldi	r25, 0x00	; 0
 43a:	43 de       	rcall	.-890    	; 0xc2 <SayIt>
 43c:	8b e0       	ldi	r24, 0x0B	; 11
 43e:	90 e0       	ldi	r25, 0x00	; 0
 440:	40 de       	rcall	.-896    	; 0xc2 <SayIt>
 442:	84 e0       	ldi	r24, 0x04	; 4
 444:	90 e0       	ldi	r25, 0x00	; 0
 446:	3d de       	rcall	.-902    	; 0xc2 <SayIt>
 448:	8d e2       	ldi	r24, 0x2D	; 45
 44a:	90 e0       	ldi	r25, 0x00	; 0
 44c:	3a de       	rcall	.-908    	; 0xc2 <SayIt>
 44e:	87 e0       	ldi	r24, 0x07	; 7
 450:	90 e0       	ldi	r25, 0x00	; 0
 452:	37 de       	rcall	.-914    	; 0xc2 <SayIt>
 454:	84 e1       	ldi	r24, 0x14	; 20
 456:	90 e0       	ldi	r25, 0x00	; 0
 458:	34 de       	rcall	.-920    	; 0xc2 <SayIt>
 45a:	82 e0       	ldi	r24, 0x02	; 2
 45c:	90 e0       	ldi	r25, 0x00	; 0
 45e:	31 de       	rcall	.-926    	; 0xc2 <SayIt>
 460:	8d e0       	ldi	r24, 0x0D	; 13
 462:	90 e0       	ldi	r25, 0x00	; 0
 464:	2e de       	rcall	.-932    	; 0xc2 <SayIt>
 466:	82 e3       	ldi	r24, 0x32	; 50
 468:	90 e0       	ldi	r25, 0x00	; 0
 46a:	2b de       	rcall	.-938    	; 0xc2 <SayIt>
 46c:	08 95       	ret

0000046e <BetterNotTellYouNow>:
 46e:	8f e3       	ldi	r24, 0x3F	; 63
 470:	90 e0       	ldi	r25, 0x00	; 0
 472:	27 de       	rcall	.-946    	; 0xc2 <SayIt>
 474:	87 e0       	ldi	r24, 0x07	; 7
 476:	90 e0       	ldi	r25, 0x00	; 0
 478:	24 de       	rcall	.-952    	; 0xc2 <SayIt>
 47a:	87 e0       	ldi	r24, 0x07	; 7
 47c:	90 e0       	ldi	r25, 0x00	; 0
 47e:	21 de       	rcall	.-958    	; 0xc2 <SayIt>
 480:	82 e0       	ldi	r24, 0x02	; 2
 482:	90 e0       	ldi	r25, 0x00	; 0
 484:	1e de       	rcall	.-964    	; 0xc2 <SayIt>
 486:	8d e0       	ldi	r24, 0x0D	; 13
 488:	90 e0       	ldi	r25, 0x00	; 0
 48a:	1b de       	rcall	.-970    	; 0xc2 <SayIt>
 48c:	82 e3       	ldi	r24, 0x32	; 50
 48e:	90 e0       	ldi	r25, 0x00	; 0
 490:	18 de       	rcall	.-976    	; 0xc2 <SayIt>
 492:	88 e3       	ldi	r24, 0x38	; 56
 494:	90 e0       	ldi	r25, 0x00	; 0
 496:	15 de       	rcall	.-982    	; 0xc2 <SayIt>
 498:	88 e1       	ldi	r24, 0x18	; 24
 49a:	90 e0       	ldi	r25, 0x00	; 0
 49c:	12 de       	rcall	.-988    	; 0xc2 <SayIt>
 49e:	82 e0       	ldi	r24, 0x02	; 2
 4a0:	90 e0       	ldi	r25, 0x00	; 0
 4a2:	0f de       	rcall	.-994    	; 0xc2 <SayIt>
 4a4:	8d e0       	ldi	r24, 0x0D	; 13
 4a6:	90 e0       	ldi	r25, 0x00	; 0
 4a8:	0c de       	rcall	.-1000   	; 0xc2 <SayIt>
 4aa:	84 e0       	ldi	r24, 0x04	; 4
 4ac:	90 e0       	ldi	r25, 0x00	; 0
 4ae:	09 de       	rcall	.-1006   	; 0xc2 <SayIt>
 4b0:	8d e0       	ldi	r24, 0x0D	; 13
 4b2:	90 e0       	ldi	r25, 0x00	; 0
 4b4:	06 de       	rcall	.-1012   	; 0xc2 <SayIt>
 4b6:	87 e0       	ldi	r24, 0x07	; 7
 4b8:	90 e0       	ldi	r25, 0x00	; 0
 4ba:	03 de       	rcall	.-1018   	; 0xc2 <SayIt>
 4bc:	87 e0       	ldi	r24, 0x07	; 7
 4be:	90 e0       	ldi	r25, 0x00	; 0
 4c0:	00 de       	rcall	.-1024   	; 0xc2 <SayIt>
 4c2:	8d e2       	ldi	r24, 0x2D	; 45
 4c4:	90 e0       	ldi	r25, 0x00	; 0
 4c6:	fd dd       	rcall	.-1030   	; 0xc2 <SayIt>
 4c8:	84 e0       	ldi	r24, 0x04	; 4
 4ca:	90 e0       	ldi	r25, 0x00	; 0
 4cc:	fa dd       	rcall	.-1036   	; 0xc2 <SayIt>
 4ce:	81 e3       	ldi	r24, 0x31	; 49
 4d0:	90 e0       	ldi	r25, 0x00	; 0
 4d2:	f7 dd       	rcall	.-1042   	; 0xc2 <SayIt>
 4d4:	81 e3       	ldi	r24, 0x31	; 49
 4d6:	90 e0       	ldi	r25, 0x00	; 0
 4d8:	f4 dd       	rcall	.-1048   	; 0xc2 <SayIt>
 4da:	86 e1       	ldi	r24, 0x16	; 22
 4dc:	90 e0       	ldi	r25, 0x00	; 0
 4de:	f1 dd       	rcall	.-1054   	; 0xc2 <SayIt>
 4e0:	86 e1       	ldi	r24, 0x16	; 22
 4e2:	90 e0       	ldi	r25, 0x00	; 0
 4e4:	ee dd       	rcall	.-1060   	; 0xc2 <SayIt>
 4e6:	86 e1       	ldi	r24, 0x16	; 22
 4e8:	90 e0       	ldi	r25, 0x00	; 0
 4ea:	eb dd       	rcall	.-1066   	; 0xc2 <SayIt>
 4ec:	84 e0       	ldi	r24, 0x04	; 4
 4ee:	90 e0       	ldi	r25, 0x00	; 0
 4f0:	e8 dd       	rcall	.-1072   	; 0xc2 <SayIt>
 4f2:	88 e3       	ldi	r24, 0x38	; 56
 4f4:	90 e0       	ldi	r25, 0x00	; 0
 4f6:	e5 dd       	rcall	.-1078   	; 0xc2 <SayIt>
 4f8:	80 e2       	ldi	r24, 0x20	; 32
 4fa:	90 e0       	ldi	r25, 0x00	; 0
 4fc:	e2 dd       	rcall	.-1084   	; 0xc2 <SayIt>
 4fe:	84 e0       	ldi	r24, 0x04	; 4
 500:	90 e0       	ldi	r25, 0x00	; 0
 502:	df dd       	rcall	.-1090   	; 0xc2 <SayIt>
 504:	08 95       	ret

00000506 <main>:
 506:	be dd       	rcall	.-1156   	; 0x84 <ReadByteFromEeprom>
 508:	80 93 62 00 	sts	0x0062, r24
 50c:	90 e0       	ldi	r25, 0x00	; 0
 50e:	90 93 61 00 	sts	0x0061, r25
 512:	80 93 60 00 	sts	0x0060, r24
 516:	c1 dd       	rcall	.-1150   	; 0x9a <InitPorts>
 518:	91 9a       	sbi	0x12, 1	; 18
 51a:	92 98       	cbi	0x12, 2	; 18
 51c:	8a ef       	ldi	r24, 0xFA	; 250
 51e:	90 e0       	ldi	r25, 0x00	; 0
 520:	a6 dd       	rcall	.-1204   	; 0x6e <delayms>
 522:	91 9a       	sbi	0x12, 1	; 18
 524:	8a ef       	ldi	r24, 0xFA	; 250
 526:	90 e0       	ldi	r25, 0x00	; 0
 528:	a2 dd       	rcall	.-1212   	; 0x6e <delayms>
 52a:	80 e0       	ldi	r24, 0x00	; 0
 52c:	90 e0       	ldi	r25, 0x00	; 0
 52e:	c9 dd       	rcall	.-1134   	; 0xc2 <SayIt>
 530:	90 9a       	sbi	0x12, 0	; 18
 532:	80 91 60 00 	lds	r24, 0x0060
 536:	90 91 61 00 	lds	r25, 0x0061
 53a:	fc 01       	movw	r30, r24
 53c:	08 97       	sbiw	r24, 0x08	; 8
 53e:	a0 f4       	brcc	.+40     	; 0x568 <main+0x62>
 540:	ed 5e       	subi	r30, 0xED	; 237
 542:	ff 4f       	sbci	r31, 0xFF	; 255
 544:	09 94       	ijmp
 546:	80 e0       	ldi	r24, 0x00	; 0
 548:	90 e0       	ldi	r25, 0x00	; 0
 54a:	bb dd       	rcall	.-1162   	; 0xc2 <SayIt>
 54c:	0d c0       	rjmp	.+26     	; 0x568 <main+0x62>
 54e:	8f df       	rcall	.-226    	; 0x46e <BetterNotTellYouNow>
 550:	0b c0       	rjmp	.+22     	; 0x568 <main+0x62>
 552:	5f df       	rcall	.-322    	; 0x412 <AskAgainLater>
 554:	09 c0       	rjmp	.+18     	; 0x568 <main+0x62>
 556:	cb de       	rcall	.-618    	; 0x2ee <HelloLila>
 558:	07 c0       	rjmp	.+14     	; 0x568 <main+0x62>
 55a:	26 de       	rcall	.-948    	; 0x1a8 <FreakazoidRobots>
 55c:	05 c0       	rjmp	.+10     	; 0x568 <main+0x62>
 55e:	fc de       	rcall	.-520    	; 0x358 <Yes>
 560:	03 c0       	rjmp	.+6      	; 0x568 <main+0x62>
 562:	0d df       	rcall	.-486    	; 0x37e <No>
 564:	01 c0       	rjmp	.+2      	; 0x568 <main+0x62>
 566:	18 df       	rcall	.-464    	; 0x398 <AsISeeItYes>
 568:	8a ef       	ldi	r24, 0xFA	; 250
 56a:	90 e0       	ldi	r25, 0x00	; 0
 56c:	80 dd       	rcall	.-1280   	; 0x6e <delayms>
 56e:	91 98       	cbi	0x12, 1	; 18
 570:	80 91 60 00 	lds	r24, 0x0060
 574:	90 91 61 00 	lds	r25, 0x0061
 578:	01 96       	adiw	r24, 0x01	; 1
 57a:	90 93 61 00 	sts	0x0061, r25
 57e:	80 93 60 00 	sts	0x0060, r24
 582:	80 91 60 00 	lds	r24, 0x0060
 586:	90 91 61 00 	lds	r25, 0x0061
 58a:	08 97       	sbiw	r24, 0x08	; 8
 58c:	30 f0       	brcs	.+12     	; 0x59a <main+0x94>
 58e:	81 e0       	ldi	r24, 0x01	; 1
 590:	90 e0       	ldi	r25, 0x00	; 0
 592:	90 93 61 00 	sts	0x0061, r25
 596:	80 93 60 00 	sts	0x0060, r24
 59a:	80 91 60 00 	lds	r24, 0x0060
 59e:	90 91 61 00 	lds	r25, 0x0061
 5a2:	80 93 62 00 	sts	0x0062, r24
 5a6:	74 dd       	rcall	.-1304   	; 0x90 <WriteByteToEeprom>
 5a8:	87 ee       	ldi	r24, 0xE7	; 231
 5aa:	93 e0       	ldi	r25, 0x03	; 3
 5ac:	60 dd       	rcall	.-1344   	; 0x6e <delayms>
 5ae:	91 98       	cbi	0x12, 1	; 18
 5b0:	b8 cf       	rjmp	.-144    	; 0x522 <main+0x1c>

000005b2 <__eeprom_read_byte_1C1D1E>:
 5b2:	e1 99       	sbic	0x1c, 1	; 28
 5b4:	fe cf       	rjmp	.-4      	; 0x5b2 <__eeprom_read_byte_1C1D1E>
 5b6:	bf bb       	out	0x1f, r27	; 31
 5b8:	ae bb       	out	0x1e, r26	; 30
 5ba:	e0 9a       	sbi	0x1c, 0	; 28
 5bc:	11 96       	adiw	r26, 0x01	; 1
 5be:	0d b2       	in	r0, 0x1d	; 29
 5c0:	08 95       	ret

000005c2 <__eeprom_write_byte_1C1D1E>:
 5c2:	e1 99       	sbic	0x1c, 1	; 28
 5c4:	fe cf       	rjmp	.-4      	; 0x5c2 <__eeprom_write_byte_1C1D1E>
 5c6:	bf bb       	out	0x1f, r27	; 31
 5c8:	ae bb       	out	0x1e, r26	; 30
 5ca:	0d ba       	out	0x1d, r0	; 29
 5cc:	11 96       	adiw	r26, 0x01	; 1
 5ce:	0f b6       	in	r0, 0x3f	; 63
 5d0:	f8 94       	cli
 5d2:	e2 9a       	sbi	0x1c, 2	; 28
 5d4:	e1 9a       	sbi	0x1c, 1	; 28
 5d6:	0f be       	out	0x3f, r0	; 63
 5d8:	08 95       	ret

000005da <_exit>:
 5da:	ff cf       	rjmp	.-2      	; 0x5da <_exit>
